; Function Attrs: mustprogress uwtable
define void @_ZN17grpc_event_engine12experimental12PipeWakeupFd13ConsumeWakeupEv(ptr noalias sret(%"class.absl::lts_20230802::Status") align 8 %agg.result, ptr nocapture noundef nonnull readonly align 8 dereferenceable(16) %this) unnamed_addr #3 align 2 personality ptr @__gxx_personality_v0 {
entry:
  %buf = alloca [128 x i8], align 16
  %ref.tmp = alloca %"class.std::__cxx11::basic_string", align 8
  %ref.tmp8 = alloca %"class.absl::lts_20230802::AlphaNum", align 8
  %ref.tmp9 = alloca %"class.absl::lts_20230802::AlphaNum", align 8
  %ref.tmp10 = alloca %"class.std::__cxx11::basic_string", align 8
  %read_fd_.i = getelementptr inbounds i8, ptr %this, i64 8
  br label %for.cond

for.cond:                                         ; preds = %for.cond.backedge, %entry
  %0 = load i32, ptr %read_fd_.i, align 8
  %call2 = call i64 @read(i32 noundef %0, ptr noundef nonnull %buf, i64 noundef 128)
  %cmp = icmp sgt i64 %call2, 0
  br i1 %cmp, label %for.cond.backedge, label %if.end

for.cond.backedge:                                ; preds = %for.cond, %if.end5
  br label %for.cond, !llvm.loop !10

if.end:                                           ; preds = %for.cond
  %cmp3 = icmp eq i64 %call2, 0
  br i1 %cmp3, label %if.then4, label %if.end5

if.then4:                                         ; preds = %if.end
  store i64 0, ptr %agg.result, align 8, !alias.scope !12
  br label %return

if.end5:                                          ; preds = %if.end
  %call6 = tail call ptr @__errno_location() #13
  %1 = load i32, ptr %call6, align 4
  switch i32 %1, label %sw.default [
    i32 11, label %sw.bb
    i32 4, label %for.cond.backedge
  ]

sw.bb:                                            ; preds = %if.end5
  store i64 0, ptr %agg.result, align 8, !alias.scope !15
  br label %return

sw.default:                                       ; preds = %if.end5
  store i64 6, ptr %ref.tmp8, align 8
  %2 = getelementptr inbounds i8, ptr %ref.tmp8, i64 8
  store ptr @.str.1, ptr %2, align 8
  call void @_ZN9grpc_core8StrErrorB5cxx11Ei(ptr nonnull sret(%"class.std::__cxx11::basic_string") align 8 %ref.tmp10, i32 noundef %1)
  %call.i = call { i64, ptr } @_ZNKSt7__cxx1112basic_stringIcSt11char_traitsIcESaIcEEcvSt17basic_string_viewIcS2_EEv(ptr noundef nonnull align 8 dereferenceable(32) %ref.tmp10) #12
  %3 = extractvalue { i64, ptr } %call.i, 0
  store i64 %3, ptr %ref.tmp9, align 8
  %4 = getelementptr inbounds i8, ptr %ref.tmp9, i64 8
  %5 = extractvalue { i64, ptr } %call.i, 1
  store ptr %5, ptr %4, align 8
  invoke void @_ZN4absl12lts_202308026StrCatB5cxx11ERKNS0_8AlphaNumES3_(ptr nonnull sret(%"class.std::__cxx11::basic_string") align 8 %ref.tmp, ptr noundef nonnull align 8 dereferenceable(48) %ref.tmp8, ptr noundef nonnull align 8 dereferenceable(48) %ref.tmp9)
          to label %invoke.cont12 unwind label %lpad

invoke.cont12:                                    ; preds = %sw.default
  %call13 = call { i64, ptr } @_ZNKSt7__cxx1112basic_stringIcSt11char_traitsIcESaIcEEcvSt17basic_string_viewIcS2_EEv(ptr noundef nonnull align 8 dereferenceable(32) %ref.tmp) #12
  %6 = extractvalue { i64, ptr } %call13, 0
  %7 = extractvalue { i64, ptr } %call13, 1
  invoke void @_ZN4absl12lts_202308026StatusC1ENS0_10StatusCodeESt17basic_string_viewIcSt11char_traitsIcEE(ptr noundef nonnull align 8 dereferenceable(8) %agg.result, i32 noundef 13, i64 %6, ptr %7)
          to label %invoke.cont15 unwind label %lpad14

invoke.cont15:                                    ; preds = %invoke.cont12
  call void @_ZNSt7__cxx1112basic_stringIcSt11char_traitsIcESaIcEED1Ev(ptr noundef nonnull align 8 dereferenceable(32) %ref.tmp) #12
  call void @_ZNSt7__cxx1112basic_stringIcSt11char_traitsIcESaIcEED1Ev(ptr noundef nonnull align 8 dereferenceable(32) %ref.tmp10) #12
  br label %return

lpad:                                             ; preds = %sw.default
  %8 = landingpad { ptr, i32 }
          cleanup
  br label %ehcleanup

lpad14:                                           ; preds = %invoke.cont12
  %9 = landingpad { ptr, i32 }
          cleanup
  call void @_ZNSt7__cxx1112basic_stringIcSt11char_traitsIcESaIcEED1Ev(ptr noundef nonnull align 8 dereferenceable(32) %ref.tmp) #12
  br label %ehcleanup

ehcleanup:                                        ; preds = %lpad14, %lpad
  %.pn = phi { ptr, i32 } [ %9, %lpad14 ], [ %8, %lpad ]
  call void @_ZNSt7__cxx1112basic_stringIcSt11char_traitsIcESaIcEED1Ev(ptr noundef nonnull align 8 dereferenceable(32) %ref.tmp10) #12
  resume { ptr, i32 } %.pn

return:                                           ; preds = %invoke.cont15, %sw.bb, %if.then4
  ret void
}